target datalayout = "e-m:e-p270:32:32-p271:32:32-p272:64:64-i64:64-i128:128-f80:128-n8:16:32:64-S128"
target triple = "x86_64-pc-linux-gnu"

%struct.ossl_param_st = type { ptr, i32, ptr, i64, i64 }
%struct.TEST_ENCAPDATA = type { ptr, ptr, i64, ptr, i64, ptr, i64, ptr, i64, ptr, i64, ptr, i64, ptr, i64 }

@opparam = internal global [2 x %struct.ossl_param_st] zeroinitializer, align 16
@.str.3 = private unnamed_addr constant [38 x i8] c"../openssl/test/evp_pkey_dhkem_test.c\00", align 1
@rctx = internal global [2 x ptr] zeroinitializer, align 16
@.str.50 = private unnamed_addr constant [2 x i8] c"1\00", align 1
@.str.74 = private unnamed_addr constant [2 x i8] c"0\00", align 1
@.str.83 = private unnamed_addr constant [40 x i8] c"EVP_PKEY_decapsulate_init(ctx, opparam)\00", align 1
@.str.141 = private unnamed_addr constant [71 x i8] c"EVP_PKEY_decapsulate(ctx, secret, &secretlen, enc, t->expected_enclen)\00", align 1

; Function Attrs: nounwind uwtable
define internal i32 @test_ec_invalid_decap_enc_buffer() #0 {
  %1 = alloca ptr, align 8
  %2 = alloca [256 x i8], align 16
  %3 = alloca [256 x i8], align 16
  %4 = alloca i64, align 8
  %5 = alloca ptr, align 8
  call void @llvm.lifetime.start.p0(i64 8, ptr %1) #6
  store ptr @ec_encapdata, ptr %1, align 8, !tbaa !12
  call void @llvm.lifetime.start.p0(i64 256, ptr %2) #6
  call void @llvm.lifetime.start.p0(i64 256, ptr %3) #6
  call void @llvm.lifetime.start.p0(i64 8, ptr %4) #6
  store i64 256, ptr %4, align 8, !tbaa !13
  call void @llvm.lifetime.start.p0(i64 8, ptr %5) #6
  %6 = load ptr, ptr @rctx, align 16, !tbaa !19
  store ptr %6, ptr %5, align 8, !tbaa !19
  %7 = getelementptr inbounds [256 x i8], ptr %2, i64 0, i64 0
  %8 = load ptr, ptr %1, align 8, !tbaa !12
  %9 = getelementptr inbounds nuw %struct.TEST_ENCAPDATA, ptr %8, i32 0, i32 7
  %10 = load ptr, ptr %9, align 8, !tbaa !35
  %11 = load ptr, ptr %1, align 8, !tbaa !12
  %12 = getelementptr inbounds nuw %struct.TEST_ENCAPDATA, ptr %11, i32 0, i32 8
  %13 = load i64, ptr %12, align 8, !tbaa !36
  call void @llvm.memcpy.p0.p0.i64(ptr align 16 %7, ptr align 1 %10, i64 %13, i1 false)
  %14 = getelementptr inbounds [256 x i8], ptr %2, i64 0, i64 0
  store i8 -1, ptr %14, align 16, !tbaa !47
  %15 = load ptr, ptr %5, align 8, !tbaa !19
  %16 = call i32 @EVP_PKEY_decapsulate_init(ptr noundef %15, ptr noundef @opparam)
  %17 = call i32 @test_int_eq(ptr noundef @.str.3, i32 noundef 697, ptr noundef @.str.83, ptr noundef @.str.50, i32 noundef %16, i32 noundef 1)
  %18 = icmp ne i32 %17, 0
  br i1 %18, label %19, label %29

19:                                               ; preds = %0
  %20 = load ptr, ptr %5, align 8, !tbaa !19
  %21 = getelementptr inbounds [256 x i8], ptr %3, i64 0, i64 0
  %22 = getelementptr inbounds [256 x i8], ptr %2, i64 0, i64 0
  %23 = load ptr, ptr %1, align 8, !tbaa !12
  %24 = getelementptr inbounds nuw %struct.TEST_ENCAPDATA, ptr %23, i32 0, i32 8
  %25 = load i64, ptr %24, align 8, !tbaa !36
  %26 = call i32 @EVP_PKEY_decapsulate(ptr noundef %20, ptr noundef %21, ptr noundef %4, ptr noundef %22, i64 noundef %25)
  %27 = call i32 @test_int_eq(ptr noundef @.str.3, i32 noundef 699, ptr noundef @.str.141, ptr noundef @.str.74, i32 noundef %26, i32 noundef 0)
  %28 = icmp ne i32 %27, 0
  br label %29

29:                                               ; preds = %19, %0
  %30 = phi i1 [ false, %0 ], [ %28, %19 ]
  %31 = zext i1 %30 to i32
  call void @llvm.lifetime.end.p0(i64 8, ptr %5) #6
  call void @llvm.lifetime.end.p0(i64 8, ptr %4) #6
  call void @llvm.lifetime.end.p0(i64 256, ptr %3) #6
  call void @llvm.lifetime.end.p0(i64 256, ptr %2) #6
  call void @llvm.lifetime.end.p0(i64 8, ptr %1) #6
  ret i32 %31
}