; Function Attrs: nounwind uwtable
define internal range(i32 0, 2) i32 @test_ec_invalid_decap_enc_buffer() #0 {
  %1 = alloca [256 x i8], align 16
  %2 = alloca [256 x i8], align 16
  %3 = alloca i64, align 8
  call void @llvm.lifetime.start.p0(i64 256, ptr nonnull %1) #5
  call void @llvm.lifetime.start.p0(i64 256, ptr nonnull %2) #5
  call void @llvm.lifetime.start.p0(i64 8, ptr nonnull %3) #5
  store i64 256, ptr %3, align 8, !tbaa !13
  %4 = load ptr, ptr @rctx, align 16, !tbaa !19
  call void @llvm.memcpy.p0.p0.i64(ptr noundef nonnull align 16 dereferenceable(65) %1, ptr noundef nonnull align 16 dereferenceable(65) @p256_expected_enc, i64 65, i1 false)
  store i8 -1, ptr %1, align 16, !tbaa !49
  %5 = tail call i32 @EVP_PKEY_decapsulate_init(ptr noundef %4, ptr noundef nonnull @opparam) #5
  %6 = tail call i32 @test_int_eq(ptr noundef nonnull @.str.3, i32 noundef 697, ptr noundef nonnull @.str.83, ptr noundef nonnull @.str.50, i32 noundef %5, i32 noundef 1) #5
  %.not = icmp eq i32 %6, 0
  br i1 %.not, label %12, label %7

7:                                                ; preds = %0
  %8 = call i32 @EVP_PKEY_decapsulate(ptr noundef %4, ptr noundef nonnull %2, ptr noundef nonnull %3, ptr noundef nonnull %1, i64 noundef 65) #5
  %9 = call i32 @test_int_eq(ptr noundef nonnull @.str.3, i32 noundef 699, ptr noundef nonnull @.str.141, ptr noundef nonnull @.str.74, i32 noundef %8, i32 noundef 0) #5
  %10 = icmp ne i32 %9, 0
  %11 = zext i1 %10 to i32
  br label %12

12:                                               ; preds = %7, %0
  %13 = phi i32 [ 0, %0 ], [ %11, %7 ]
  call void @llvm.lifetime.end.p0(i64 8, ptr nonnull %3) #5
  call void @llvm.lifetime.end.p0(i64 256, ptr nonnull %2) #5
  call void @llvm.lifetime.end.p0(i64 256, ptr nonnull %1) #5
  ret i32 %13
}